; Function Attrs: mustprogress uwtable
define hidden noundef zeroext i1 @_ZN2cv11TiffEncoder5writeERKNS_3MatERKSt6vectorIiSaIiEE(ptr noundef nonnull readonly align 8 captures(none) dereferenceable(120) %0, ptr noundef nonnull align 8 dereferenceable(96) %1, ptr noundef nonnull readonly align 8 captures(none) dereferenceable(24) %2) unnamed_addr #3 align 2 personality ptr @__gxx_personality_v0 {
  %4 = alloca %"class.std::vector.11", align 8
  %5 = load i32, ptr %1, align 8, !tbaa !105
  %6 = and i32 %5, 7
  %or.cond11.not = icmp eq i32 %6, 7
  br i1 %or.cond11.not, label %7, label %9

7:                                                ; preds = %3
  %8 = and i32 %5, 4095
  tail call void @_ZN2cv6detail20check_failed_MatTypeEiRKNS0_12CheckContextE(i32 noundef %8, ptr noundef nonnull align 8 dereferenceable(48) @_ZZN2cv11TiffEncoder5writeERKNS_3MatERKSt6vectorIiSaIiEEE16__cv_check__1426) #26
  unreachable

9:                                                ; preds = %3
  call void @llvm.lifetime.start.p0(i64 24, ptr nonnull %4) #23
  call void @llvm.memset.p0.i64(ptr noundef nonnull align 8 dereferenceable(24) %4, i8 0, i64 24, i1 false)
  %10 = getelementptr inbounds nuw i8, ptr %4, i64 8
  invoke void @_ZNSt6vectorIN2cv3MatESaIS1_EE17_M_realloc_insertIJRKS1_EEEvN9__gnu_cxx17__normal_iteratorIPS1_S3_EEDpOT_(ptr noundef nonnull align 8 dereferenceable(24) %4, ptr null, ptr noundef nonnull align 8 dereferenceable(96) %1)
          to label %_ZNSt6vectorIN2cv3MatESaIS1_EE9push_backERKS1_.exit unwind label %18

_ZNSt6vectorIN2cv3MatESaIS1_EE9push_backERKS1_.exit: ; preds = %9
  %11 = invoke noundef zeroext i1 @_ZN2cv11TiffEncoder12writeLibTiffERKSt6vectorINS_3MatESaIS2_EERKS1_IiSaIiEE(ptr noundef nonnull align 8 dereferenceable(120) %0, ptr noundef nonnull align 8 dereferenceable(24) %4, ptr noundef nonnull align 8 dereferenceable(24) %2)
          to label %12 unwind label %18

12:                                               ; preds = %_ZNSt6vectorIN2cv3MatESaIS1_EE9push_backERKS1_.exit
  %13 = load ptr, ptr %4, align 8, !tbaa !66
  %14 = load ptr, ptr %10, align 8, !tbaa !67
  %.not4.i.i.i.i = icmp eq ptr %13, %14
  br i1 %.not4.i.i.i.i, label %_ZSt8_DestroyIPN2cv3MatES1_EvT_S3_RSaIT0_E.exit.i, label %.lr.ph.i.i.i.i

.lr.ph.i.i.i.i:                                   ; preds = %12, %.lr.ph.i.i.i.i
  %.05.i.i.i.i = phi ptr [ %15, %.lr.ph.i.i.i.i ], [ %13, %12 ]
  call void @_ZN2cv3MatD1Ev(ptr noundef nonnull align 8 dereferenceable(96) %.05.i.i.i.i) #23
  %15 = getelementptr inbounds nuw i8, ptr %.05.i.i.i.i, i64 96
  %.not.i.i.i.i = icmp eq ptr %15, %14
  br i1 %.not.i.i.i.i, label %_ZSt8_DestroyIPN2cv3MatES1_EvT_S3_RSaIT0_E.exitthread-pre-split.i, label %.lr.ph.i.i.i.i, !llvm.loop !68

_ZSt8_DestroyIPN2cv3MatES1_EvT_S3_RSaIT0_E.exitthread-pre-split.i: ; preds = %.lr.ph.i.i.i.i
  %.pr.i = load ptr, ptr %4, align 8, !tbaa !66
  br label %_ZSt8_DestroyIPN2cv3MatES1_EvT_S3_RSaIT0_E.exit.i

_ZSt8_DestroyIPN2cv3MatES1_EvT_S3_RSaIT0_E.exit.i: ; preds = %_ZSt8_DestroyIPN2cv3MatES1_EvT_S3_RSaIT0_E.exitthread-pre-split.i, %12
  %16 = phi ptr [ %.pr.i, %_ZSt8_DestroyIPN2cv3MatES1_EvT_S3_RSaIT0_E.exitthread-pre-split.i ], [ %13, %12 ]
  %.not.i.i.i = icmp eq ptr %16, null
  br i1 %.not.i.i.i, label %_ZNSt6vectorIN2cv3MatESaIS1_EED2Ev.exit, label %17

17:                                               ; preds = %_ZSt8_DestroyIPN2cv3MatES1_EvT_S3_RSaIT0_E.exit.i
  call void @_ZdlPv(ptr noundef nonnull %16) #25
  br label %_ZNSt6vectorIN2cv3MatESaIS1_EED2Ev.exit

_ZNSt6vectorIN2cv3MatESaIS1_EED2Ev.exit:          ; preds = %_ZSt8_DestroyIPN2cv3MatES1_EvT_S3_RSaIT0_E.exit.i, %17
  call void @llvm.lifetime.end.p0(i64 24, ptr nonnull %4) #23
  ret i1 %11

18:                                               ; preds = %9, %_ZNSt6vectorIN2cv3MatESaIS1_EE9push_backERKS1_.exit
  %19 = landingpad { ptr, i32 }
          cleanup
  call void @_ZNSt6vectorIN2cv3MatESaIS1_EED2Ev(ptr noundef nonnull align 8 dereferenceable(24) %4) #23
  call void @llvm.lifetime.end.p0(i64 24, ptr nonnull %4) #23
  resume { ptr, i32 } %19
}